target datalayout = "e-m:e-p270:32:32-p271:32:32-p272:64:64-i64:64-i128:128-f80:128-n8:16:32:64-S128"
target triple = "x86_64-pc-linux-gnu"

%struct._serv_port_custom_key = type { i16, i32 }

; Function Attrs: nounwind null_pointer_is_valid sspstrong uwtable
define internal i32 @serv_port_custom_hash(ptr noundef %0) #0 {
  %2 = alloca ptr, align 8
  %3 = alloca ptr, align 8
  store ptr %0, ptr %2, align 8
  call void @llvm.lifetime.start.p0(i64 8, ptr %3) #16
  %4 = load ptr, ptr %2, align 8
  store ptr %4, ptr %3, align 8
  %5 = load ptr, ptr %3, align 8
  %6 = getelementptr inbounds nuw %struct._serv_port_custom_key, ptr %5, i32 0, i32 0
  %7 = load i16, ptr %6, align 4
  %8 = zext i16 %7 to i32
  %9 = load ptr, ptr %3, align 8
  %10 = getelementptr inbounds nuw %struct._serv_port_custom_key, ptr %9, i32 0, i32 1
  %11 = load i32, ptr %10, align 4
  %12 = shl i32 %11, 16
  %13 = add i32 %8, %12
  call void @llvm.lifetime.end.p0(i64 8, ptr %3) #16
  ret i32 %13
}