; Function Attrs: mustprogress nofree norecurse nosync nounwind null_pointer_is_valid sspstrong willreturn memory(argmem: read) uwtable
define internal i32 @serv_port_custom_hash(ptr noundef readonly captures(none) %0) #8 {
  %2 = load i16, ptr %0, align 4
  %3 = zext i16 %2 to i32
  %4 = getelementptr inbounds nuw i8, ptr %0, i64 4
  %5 = load i32, ptr %4, align 4
  %6 = shl i32 %5, 16
  %7 = or disjoint i32 %6, %3
  ret i32 %7
}